target datalayout = "e-m:e-p270:32:32-p271:32:32-p272:64:64-i64:64-i128:128-f80:128-n8:16:32:64-S128"
target triple = "x86_64-pc-linux-gnu"

%struct.alts_zero_copy_grpc_protector = type { %struct.tsi_zero_copy_grpc_protector, ptr, ptr, i64, i64, %struct.grpc_slice_buffer, %struct.grpc_slice_buffer, %struct.grpc_slice_buffer, i32 }
%struct.tsi_zero_copy_grpc_protector = type { ptr }
%struct.grpc_slice_buffer = type { ptr, ptr, i64, i64, i64, [6 x %struct.grpc_slice] }
%struct.grpc_slice = type { ptr, %"union.grpc_slice::grpc_slice_data" }
%"union.grpc_slice::grpc_slice_data" = type { %"struct.grpc_slice::grpc_slice_data::grpc_slice_refcounted", [8 x i8] }
%"struct.grpc_slice::grpc_slice_data::grpc_slice_refcounted" = type { i64, ptr }

; Function Attrs: mustprogress nounwind uwtable
define internal noundef i32 @_ZL44alts_zero_copy_grpc_protector_max_frame_sizeP28tsi_zero_copy_grpc_protectorPm(ptr noundef %0, ptr noundef %1) #6 {
  %3 = alloca i32, align 4
  %4 = alloca ptr, align 8
  %5 = alloca ptr, align 8
  %6 = alloca ptr, align 8
  store ptr %0, ptr %4, align 8, !tbaa !40
  store ptr %1, ptr %5, align 8, !tbaa !10
  %7 = load ptr, ptr %4, align 8, !tbaa !40
  %8 = icmp eq ptr %7, null
  br i1 %8, label %12, label %9

9:                                                ; preds = %2
  %10 = load ptr, ptr %5, align 8, !tbaa !10
  %11 = icmp eq ptr %10, null
  br i1 %11, label %12, label %13

12:                                               ; preds = %9, %2
  store i32 2, ptr %3, align 4
  br label %19

13:                                               ; preds = %9
  call void @llvm.lifetime.start.p0(i64 8, ptr %6) #3
  %14 = load ptr, ptr %4, align 8, !tbaa !40
  store ptr %14, ptr %6, align 8, !tbaa !15
  %15 = load ptr, ptr %6, align 8, !tbaa !15
  %16 = getelementptr inbounds nuw %struct.alts_zero_copy_grpc_protector, ptr %15, i32 0, i32 3
  %17 = load i64, ptr %16, align 8, !tbaa !25
  %18 = load ptr, ptr %5, align 8, !tbaa !10
  store i64 %17, ptr %18, align 8, !tbaa !23
  store i32 0, ptr %3, align 4
  call void @llvm.lifetime.end.p0(i64 8, ptr %6) #3
  br label %19

19:                                               ; preds = %13, %12
  %20 = load i32, ptr %3, align 4
  ret i32 %20
}